target datalayout = "e-m:e-p270:32:32-p271:32:32-p272:64:64-i64:64-i128:128-f80:128-n8:16:32:64-S128"
target triple = "x86_64-pc-linux-gnu"

%"class.Imf_3_4::Header::ConstIterator" = type { %"struct.std::_Rb_tree_const_iterator" }
%"struct.std::_Rb_tree_const_iterator" = type { ptr }
%"class.Imf_3_4::Header::Iterator" = type { %"struct.std::_Rb_tree_iterator" }
%"struct.std::_Rb_tree_iterator" = type { ptr }
%"class.Imf_3_4::Attribute" = type { ptr }
%"class.Imf_3_4::TypedAttribute.1" = type <{ %"class.Imf_3_4::Attribute", float, [4 x i8] }>

@_ZTISt9exception = external constant ptr
@_ZN12_GLOBAL__N_112errorMessageE = internal global [1024 x i8] zeroinitializer, align 16
@_ZTIN7Imf_3_49AttributeE = external constant ptr
@.str = private unnamed_addr constant [27 x i8] c"Unexpected attribute type.\00", align 1
@_ZTIN7Iex_3_47TypeExcE = external constant ptr
@_ZTIN7Imf_3_414TypedAttributeIfEE = external constant ptr

; Function Attrs: mustprogress nounwind uwtable
define linkonce_odr noundef zeroext i1 @_ZSteqRKSt23_Rb_tree_const_iteratorISt4pairIKN7Imf_3_44NameEPNS1_9AttributeEEES9_(ptr noundef nonnull align 8 dereferenceable(8) %0, ptr noundef nonnull align 8 dereferenceable(8) %1) #4 comdat {
  %3 = alloca ptr, align 8
  %4 = alloca ptr, align 8
  store ptr %0, ptr %3, align 8, !tbaa !150
  store ptr %1, ptr %4, align 8, !tbaa !150
  %5 = load ptr, ptr %3, align 8, !tbaa !150
  %6 = getelementptr inbounds nuw %"struct.std::_Rb_tree_const_iterator", ptr %5, i32 0, i32 0
  %7 = load ptr, ptr %6, align 8, !tbaa !152
  %8 = load ptr, ptr %4, align 8, !tbaa !150
  %9 = getelementptr inbounds nuw %"struct.std::_Rb_tree_const_iterator", ptr %8, i32 0, i32 0
  %10 = load ptr, ptr %9, align 8, !tbaa !152
  %11 = icmp eq ptr %7, %10
  ret i1 %11
}

; Function Attrs: mustprogress nounwind uwtable
define linkonce_odr hidden void @_ZNSt23_Rb_tree_const_iteratorISt4pairIKN7Imf_3_44NameEPNS1_9AttributeEEEC2ERKSt17_Rb_tree_iteratorIS6_E(ptr noundef nonnull align 8 dereferenceable(8) %0, ptr noundef nonnull align 8 dereferenceable(8) %1) unnamed_addr #4 comdat align 2 {
  %3 = alloca ptr, align 8
  %4 = alloca ptr, align 8
  store ptr %0, ptr %3, align 8, !tbaa !150
  store ptr %1, ptr %4, align 8, !tbaa !155
  %5 = load ptr, ptr %3, align 8
  %6 = getelementptr inbounds nuw %"struct.std::_Rb_tree_const_iterator", ptr %5, i32 0, i32 0
  %7 = load ptr, ptr %4, align 8, !tbaa !155
  %8 = getelementptr inbounds nuw %"struct.std::_Rb_tree_iterator", ptr %7, i32 0, i32 0
  %9 = load ptr, ptr %8, align 8, !tbaa !157
  store ptr %9, ptr %6, align 8, !tbaa !152
  ret void
}

; Function Attrs: noinline noreturn nounwind uwtable
define linkonce_odr hidden void @__clang_call_terminate(ptr noundef %0) #11 comdat {
  %2 = call ptr @__cxa_begin_catch(ptr %0) #3
  call void @_ZSt9terminatev() #18
  unreachable
}

; Function Attrs: inlinehint mustprogress nounwind uwtable
define available_externally noundef nonnull align 4 dereferenceable(4) ptr @_ZN7Imf_3_414TypedAttributeIfE5valueEv(ptr noundef nonnull align 8 dereferenceable(12) %0) #6 align 2 {
  %2 = alloca ptr, align 8
  store ptr %0, ptr %2, align 8, !tbaa !65
  %3 = load ptr, ptr %2, align 8
  %4 = getelementptr inbounds nuw %"class.Imf_3_4::TypedAttribute.1", ptr %3, i32 0, i32 1
  ret ptr %4
}

; Function Attrs: mustprogress uwtable
define linkonce_odr noundef nonnull align 8 dereferenceable(12) ptr @_ZN7Imf_3_46Header14typedAttributeINS_14TypedAttributeIfEEEERT_PKc(ptr noundef nonnull align 8 dereferenceable(49) %0, ptr noundef %1) #7 comdat align 2 personality ptr @__gxx_personality_v0 {
  %3 = alloca ptr, align 8
  %4 = alloca ptr, align 8
  %5 = alloca ptr, align 8
  %6 = alloca ptr, align 8
  %7 = alloca ptr, align 8
  %8 = alloca i32, align 4
  store ptr %0, ptr %3, align 8, !tbaa !59
  store ptr %1, ptr %4, align 8, !tbaa !53
  %9 = load ptr, ptr %3, align 8
  call void @llvm.lifetime.start.p0(i64 8, ptr %5) #3
  %10 = load ptr, ptr %4, align 8, !tbaa !53
  %11 = call noundef nonnull align 8 dereferenceable(8) ptr @_ZN7Imf_3_46HeaderixEPKc(ptr noundef nonnull align 8 dereferenceable(49) %9, ptr noundef %10)
  store ptr %11, ptr %5, align 8, !tbaa !61
  call void @llvm.lifetime.start.p0(i64 8, ptr %6) #3
  %12 = load ptr, ptr %5, align 8, !tbaa !61
  %13 = icmp eq ptr %12, null
  br i1 %13, label %16, label %14

14:                                               ; preds = %2
  %15 = call ptr @__dynamic_cast(ptr %12, ptr @_ZTIN7Imf_3_49AttributeE, ptr @_ZTIN7Imf_3_414TypedAttributeIfEE, i64 0) #3
  br label %17

16:                                               ; preds = %2
  br label %17

17:                                               ; preds = %16, %14
  %18 = phi ptr [ %15, %14 ], [ null, %16 ]
  store ptr %18, ptr %6, align 8, !tbaa !65
  %19 = load ptr, ptr %6, align 8, !tbaa !65
  %20 = icmp eq ptr %19, null
  br i1 %20, label %21, label %28

21:                                               ; preds = %17
  %22 = call ptr @__cxa_allocate_exception(i64 72) #3
  invoke void @_ZN7Iex_3_47TypeExcC1EPKc(ptr noundef nonnull align 8 dereferenceable(72) %22, ptr noundef @.str)
          to label %23 unwind label %24

23:                                               ; preds = %21
  call void @__cxa_throw(ptr %22, ptr @_ZTIN7Iex_3_47TypeExcE, ptr @_ZN7Iex_3_47TypeExcD1Ev) #21
  unreachable

24:                                               ; preds = %21
  %25 = landingpad { ptr, i32 }
          cleanup
  %26 = extractvalue { ptr, i32 } %25, 0
  store ptr %26, ptr %7, align 8
  %27 = extractvalue { ptr, i32 } %25, 1
  store i32 %27, ptr %8, align 4
  call void @__cxa_free_exception(ptr %22) #3
  call void @llvm.lifetime.end.p0(i64 8, ptr %6) #3
  call void @llvm.lifetime.end.p0(i64 8, ptr %5) #3
  br label %30

28:                                               ; preds = %17
  %29 = load ptr, ptr %6, align 8, !tbaa !65
  call void @llvm.lifetime.end.p0(i64 8, ptr %6) #3
  call void @llvm.lifetime.end.p0(i64 8, ptr %5) #3
  ret ptr %29

30:                                               ; preds = %24
  %31 = load ptr, ptr %7, align 8
  %32 = load i32, ptr %8, align 4
  %33 = insertvalue { ptr, i32 } poison, ptr %31, 0
  %34 = insertvalue { ptr, i32 } %33, i32 %32, 1
  resume { ptr, i32 } %34
}

; Function Attrs: mustprogress nounwind uwtable
define internal void @_ZN12_GLOBAL__N_115setErrorMessageERKSt9exception(ptr noundef nonnull align 8 dereferenceable(8) %0) #4 {
  %2 = alloca ptr, align 8
  store ptr %0, ptr %2, align 8, !tbaa !23
  %3 = load ptr, ptr %2, align 8, !tbaa !23
  %4 = load ptr, ptr %3, align 8, !tbaa !30
  %5 = getelementptr inbounds ptr, ptr %4, i64 2
  %6 = load ptr, ptr %5, align 8
  %7 = call noundef ptr %6(ptr noundef nonnull align 8 dereferenceable(8) %3) #3
  %8 = call ptr @strncpy(ptr noundef @_ZN12_GLOBAL__N_112errorMessageE, ptr noundef %7, i64 noundef 1023) #3
  store i8 0, ptr getelementptr inbounds ([1024 x i8], ptr @_ZN12_GLOBAL__N_112errorMessageE, i64 0, i64 1023), align 1, !tbaa !32
  ret void
}

; Function Attrs: inlinehint mustprogress nounwind uwtable
define linkonce_odr hidden noundef zeroext i1 @_ZN7Imf_3_4eqERKNS_6Header13ConstIteratorES3_(ptr noundef nonnull align 8 dereferenceable(8) %0, ptr noundef nonnull align 8 dereferenceable(8) %1) #6 comdat {
  %3 = alloca ptr, align 8
  %4 = alloca ptr, align 8
  store ptr %0, ptr %3, align 8, !tbaa !55
  store ptr %1, ptr %4, align 8, !tbaa !55
  %5 = load ptr, ptr %3, align 8, !tbaa !55
  %6 = getelementptr inbounds nuw %"class.Imf_3_4::Header::ConstIterator", ptr %5, i32 0, i32 0
  %7 = load ptr, ptr %4, align 8, !tbaa !55
  %8 = getelementptr inbounds nuw %"class.Imf_3_4::Header::ConstIterator", ptr %7, i32 0, i32 0
  %9 = call noundef zeroext i1 @_ZSteqRKSt23_Rb_tree_const_iteratorISt4pairIKN7Imf_3_44NameEPNS1_9AttributeEEES9_(ptr noundef nonnull align 8 dereferenceable(8) %6, ptr noundef nonnull align 8 dereferenceable(8) %8) #3
  ret i1 %9
}

; Function Attrs: inlinehint mustprogress nounwind uwtable
define linkonce_odr void @_ZN7Imf_3_46Header13ConstIteratorC2ERKNS0_8IteratorE(ptr noundef nonnull align 8 dereferenceable(8) %0, ptr noundef nonnull align 8 dereferenceable(8) %1) unnamed_addr #6 comdat align 2 {
  %3 = alloca ptr, align 8
  %4 = alloca ptr, align 8
  store ptr %0, ptr %3, align 8, !tbaa !55
  store ptr %1, ptr %4, align 8, !tbaa !57
  %5 = load ptr, ptr %3, align 8
  %6 = getelementptr inbounds nuw %"class.Imf_3_4::Header::ConstIterator", ptr %5, i32 0, i32 0
  %7 = load ptr, ptr %4, align 8, !tbaa !57
  %8 = getelementptr inbounds nuw %"class.Imf_3_4::Header::Iterator", ptr %7, i32 0, i32 0
  call void @_ZNSt23_Rb_tree_const_iteratorISt4pairIKN7Imf_3_44NameEPNS1_9AttributeEEEC2ERKSt17_Rb_tree_iteratorIS6_E(ptr noundef nonnull align 8 dereferenceable(8) %6, ptr noundef nonnull align 8 dereferenceable(8) %8) #3
  ret void
}

; Function Attrs: inlinehint mustprogress nounwind uwtable
define internal noundef ptr @_ZN12_GLOBAL__N_16headerEP9ImfHeader(ptr noundef %0) #6 {
  %2 = alloca ptr, align 8
  store ptr %0, ptr %2, align 8, !tbaa !33
  %3 = load ptr, ptr %2, align 8, !tbaa !33
  ret ptr %3
}

; Function Attrs: mustprogress uwtable
define i32 @ImfHeaderSetFloatAttribute(ptr noundef %0, ptr noundef %1, float noundef %2) #7 personality ptr @__gxx_personality_v0 {
  %4 = alloca i32, align 4
  %5 = alloca ptr, align 8
  %6 = alloca ptr, align 8
  %7 = alloca float, align 4
  %8 = alloca %"class.Imf_3_4::Header::ConstIterator", align 8
  %9 = alloca %"class.Imf_3_4::Header::Iterator", align 8
  %10 = alloca ptr, align 8
  %11 = alloca i32, align 4
  %12 = alloca %"class.Imf_3_4::Header::ConstIterator", align 8
  %13 = alloca %"class.Imf_3_4::Header::Iterator", align 8
  %14 = alloca %"class.Imf_3_4::TypedAttribute.1", align 8
  %15 = alloca ptr, align 8
  store ptr %0, ptr %5, align 8, !tbaa !33
  store ptr %1, ptr %6, align 8, !tbaa !53
  store float %2, ptr %7, align 4, !tbaa !3
  call void @llvm.lifetime.start.p0(i64 8, ptr %8) #3
  call void @llvm.lifetime.start.p0(i64 8, ptr %9) #3
  %16 = load ptr, ptr %5, align 8, !tbaa !33
  %17 = invoke noundef ptr @_ZN12_GLOBAL__N_16headerEP9ImfHeader(ptr noundef %16)
          to label %18 unwind label %42

18:                                               ; preds = %3
  %19 = load ptr, ptr %6, align 8, !tbaa !53
  %20 = invoke ptr @_ZN7Imf_3_46Header4findEPKc(ptr noundef nonnull align 8 dereferenceable(49) %17, ptr noundef %19)
          to label %21 unwind label %42

21:                                               ; preds = %18
  %22 = getelementptr inbounds nuw %"class.Imf_3_4::Header::Iterator", ptr %9, i32 0, i32 0
  %23 = getelementptr inbounds nuw %"struct.std::_Rb_tree_iterator", ptr %22, i32 0, i32 0
  store ptr %20, ptr %23, align 8
  invoke void @_ZN7Imf_3_46Header13ConstIteratorC2ERKNS0_8IteratorE(ptr noundef nonnull align 8 dereferenceable(8) %8, ptr noundef nonnull align 8 dereferenceable(8) %9)
          to label %24 unwind label %42

24:                                               ; preds = %21
  call void @llvm.lifetime.start.p0(i64 8, ptr %12) #3
  call void @llvm.lifetime.start.p0(i64 8, ptr %13) #3
  %25 = load ptr, ptr %5, align 8, !tbaa !33
  %26 = invoke noundef ptr @_ZN12_GLOBAL__N_16headerEP9ImfHeader(ptr noundef %25)
          to label %27 unwind label %46

27:                                               ; preds = %24
  %28 = invoke ptr @_ZN7Imf_3_46Header3endEv(ptr noundef nonnull align 8 dereferenceable(49) %26)
          to label %29 unwind label %46

29:                                               ; preds = %27
  %30 = getelementptr inbounds nuw %"class.Imf_3_4::Header::Iterator", ptr %13, i32 0, i32 0
  %31 = getelementptr inbounds nuw %"struct.std::_Rb_tree_iterator", ptr %30, i32 0, i32 0
  store ptr %28, ptr %31, align 8
  invoke void @_ZN7Imf_3_46Header13ConstIteratorC2ERKNS0_8IteratorE(ptr noundef nonnull align 8 dereferenceable(8) %12, ptr noundef nonnull align 8 dereferenceable(8) %13)
          to label %32 unwind label %46

32:                                               ; preds = %29
  %33 = invoke noundef zeroext i1 @_ZN7Imf_3_4eqERKNS_6Header13ConstIteratorES3_(ptr noundef nonnull align 8 dereferenceable(8) %8, ptr noundef nonnull align 8 dereferenceable(8) %12)
          to label %34 unwind label %46

34:                                               ; preds = %32
  call void @llvm.lifetime.end.p0(i64 8, ptr %13) #3
  call void @llvm.lifetime.end.p0(i64 8, ptr %12) #3
  call void @llvm.lifetime.end.p0(i64 8, ptr %9) #3
  call void @llvm.lifetime.end.p0(i64 8, ptr %8) #3
  br i1 %33, label %35, label %73

35:                                               ; preds = %34
  %36 = load ptr, ptr %5, align 8, !tbaa !33
  %37 = invoke noundef ptr @_ZN12_GLOBAL__N_16headerEP9ImfHeader(ptr noundef %36)
          to label %38 unwind label %51

38:                                               ; preds = %35
  %39 = load ptr, ptr %6, align 8, !tbaa !53
  call void @llvm.lifetime.start.p0(i64 16, ptr %14) #3
  invoke void @_ZN7Imf_3_414TypedAttributeIfEC1ERKf(ptr noundef nonnull align 8 dereferenceable(12) %14, ptr noundef nonnull align 4 dereferenceable(4) %7)
          to label %40 unwind label %55

40:                                               ; preds = %38
  invoke void @_ZN7Imf_3_46Header6insertEPKcRKNS_9AttributeE(ptr noundef nonnull align 8 dereferenceable(49) %37, ptr noundef %39, ptr noundef nonnull align 8 dereferenceable(8) %14)
          to label %41 unwind label %59

41:                                               ; preds = %40
  call void @_ZN7Imf_3_414TypedAttributeIfED1Ev(ptr noundef nonnull align 8 dereferenceable(12) %14) #3
  call void @llvm.lifetime.end.p0(i64 16, ptr %14) #3
  br label %83

42:                                               ; preds = %21, %18, %3
  %43 = landingpad { ptr, i32 }
          cleanup
          catch ptr @_ZTISt9exception
  %44 = extractvalue { ptr, i32 } %43, 0
  store ptr %44, ptr %10, align 8
  %45 = extractvalue { ptr, i32 } %43, 1
  store i32 %45, ptr %11, align 4
  br label %50

46:                                               ; preds = %32, %29, %27, %24
  %47 = landingpad { ptr, i32 }
          cleanup
          catch ptr @_ZTISt9exception
  %48 = extractvalue { ptr, i32 } %47, 0
  store ptr %48, ptr %10, align 8
  %49 = extractvalue { ptr, i32 } %47, 1
  store i32 %49, ptr %11, align 4
  call void @llvm.lifetime.end.p0(i64 8, ptr %13) #3
  call void @llvm.lifetime.end.p0(i64 8, ptr %12) #3
  br label %50

50:                                               ; preds = %46, %42
  call void @llvm.lifetime.end.p0(i64 8, ptr %9) #3
  call void @llvm.lifetime.end.p0(i64 8, ptr %8) #3
  br label %64

51:                                               ; preds = %80, %77, %73, %35
  %52 = landingpad { ptr, i32 }
          catch ptr @_ZTISt9exception
  %53 = extractvalue { ptr, i32 } %52, 0
  store ptr %53, ptr %10, align 8
  %54 = extractvalue { ptr, i32 } %52, 1
  store i32 %54, ptr %11, align 4
  br label %64

55:                                               ; preds = %38
  %56 = landingpad { ptr, i32 }
          cleanup
          catch ptr @_ZTISt9exception
  %57 = extractvalue { ptr, i32 } %56, 0
  store ptr %57, ptr %10, align 8
  %58 = extractvalue { ptr, i32 } %56, 1
  store i32 %58, ptr %11, align 4
  br label %63

59:                                               ; preds = %40
  %60 = landingpad { ptr, i32 }
          cleanup
          catch ptr @_ZTISt9exception
  %61 = extractvalue { ptr, i32 } %60, 0
  store ptr %61, ptr %10, align 8
  %62 = extractvalue { ptr, i32 } %60, 1
  store i32 %62, ptr %11, align 4
  call void @_ZN7Imf_3_414TypedAttributeIfED1Ev(ptr noundef nonnull align 8 dereferenceable(12) %14) #3
  br label %63

63:                                               ; preds = %59, %55
  call void @llvm.lifetime.end.p0(i64 16, ptr %14) #3
  br label %64

64:                                               ; preds = %63, %51, %50
  %65 = load i32, ptr %11, align 4
  %66 = call i32 @llvm.eh.typeid.for.p0(ptr @_ZTISt9exception) #3
  %67 = icmp eq i32 %65, %66
  br i1 %67, label %68, label %92

68:                                               ; preds = %64
  call void @llvm.lifetime.start.p0(i64 8, ptr %15) #3
  %69 = load ptr, ptr %10, align 8
  %70 = call ptr @__cxa_begin_catch(ptr %69) #3
  store ptr %70, ptr %15, align 8
  %71 = load ptr, ptr %15, align 8, !tbaa !23
  invoke void @_ZN12_GLOBAL__N_115setErrorMessageERKSt9exception(ptr noundef nonnull align 8 dereferenceable(8) %71)
          to label %72 unwind label %84

72:                                               ; preds = %68
  store i32 0, ptr %4, align 4
  call void @__cxa_end_catch()
  call void @llvm.lifetime.end.p0(i64 8, ptr %15) #3
  br label %90

73:                                               ; preds = %34
  %74 = load float, ptr %7, align 4, !tbaa !3
  %75 = load ptr, ptr %5, align 8, !tbaa !33
  %76 = invoke noundef ptr @_ZN12_GLOBAL__N_16headerEP9ImfHeader(ptr noundef %75)
          to label %77 unwind label %51

77:                                               ; preds = %73
  %78 = load ptr, ptr %6, align 8, !tbaa !53
  %79 = invoke noundef nonnull align 8 dereferenceable(12) ptr @_ZN7Imf_3_46Header14typedAttributeINS_14TypedAttributeIfEEEERT_PKc(ptr noundef nonnull align 8 dereferenceable(49) %76, ptr noundef %78)
          to label %80 unwind label %51

80:                                               ; preds = %77
  %81 = invoke noundef nonnull align 4 dereferenceable(4) ptr @_ZN7Imf_3_414TypedAttributeIfE5valueEv(ptr noundef nonnull align 8 dereferenceable(12) %79)
          to label %82 unwind label %51

82:                                               ; preds = %80
  store float %74, ptr %81, align 4, !tbaa !3
  br label %83

83:                                               ; preds = %82, %41
  store i32 1, ptr %4, align 4
  br label %90

84:                                               ; preds = %68
  %85 = landingpad { ptr, i32 }
          cleanup
  %86 = extractvalue { ptr, i32 } %85, 0
  store ptr %86, ptr %10, align 8
  %87 = extractvalue { ptr, i32 } %85, 1
  store i32 %87, ptr %11, align 4
  invoke void @__cxa_end_catch()
          to label %88 unwind label %97

88:                                               ; preds = %84
  call void @llvm.lifetime.end.p0(i64 8, ptr %15) #3
  br label %92

89:                                               ; No predecessors!
  unreachable

90:                                               ; preds = %72, %83
  %91 = load i32, ptr %4, align 4
  ret i32 %91

92:                                               ; preds = %88, %64
  %93 = load ptr, ptr %10, align 8
  %94 = load i32, ptr %11, align 4
  %95 = insertvalue { ptr, i32 } poison, ptr %93, 0
  %96 = insertvalue { ptr, i32 } %95, i32 %94, 1
  resume { ptr, i32 } %96

97:                                               ; preds = %84
  %98 = landingpad { ptr, i32 }
          catch ptr null
  %99 = extractvalue { ptr, i32 } %98, 0
  call void @__clang_call_terminate(ptr %99) #18
  unreachable
}